; Function Attrs: nofree norecurse nosync nounwind memory(read, inaccessiblemem: none) uwtable
define i32 @Abc_NtkPowerCriticalEdges(ptr noundef readnone captures(none) %0, ptr noundef readonly captures(none) %1, float noundef %2, ptr noundef readonly captures(none) %3) local_unnamed_addr #10 {
  %5 = getelementptr inbounds nuw i8, ptr %3, i64 8
  %6 = load ptr, ptr %5, align 8, !tbaa !61
  %7 = getelementptr i8, ptr %1, i64 28
  %.val = load i32, ptr %7, align 4, !tbaa !3
  %8 = icmp sgt i32 %.val, 0
  br i1 %8, label %.lr.ph, label %.critedge

.lr.ph:                                           ; preds = %4
  %.val12 = load ptr, ptr %1, align 8, !tbaa !13
  %9 = getelementptr i8, ptr %1, i64 32
  %.val13 = load ptr, ptr %9, align 8, !tbaa !14
  %10 = getelementptr i8, ptr %.val12, i64 32
  %.val12.val = load ptr, ptr %10, align 8, !tbaa !15
  %11 = getelementptr i8, ptr %.val12.val, i64 8
  %.val12.val.val = load ptr, ptr %11, align 8, !tbaa !29
  %wide.trip.count = zext nneg i32 %.val to i64
  br label %12

12:                                               ; preds = %.lr.ph, %12
  %indvars.iv = phi i64 [ 0, %.lr.ph ], [ %indvars.iv.next, %12 ]
  %.01114 = phi i32 [ 0, %.lr.ph ], [ %.1, %12 ]
  %13 = getelementptr inbounds nuw i32, ptr %.val13, i64 %indvars.iv
  %14 = load i32, ptr %13, align 4, !tbaa !31
  %15 = sext i32 %14 to i64
  %16 = getelementptr inbounds ptr, ptr %.val12.val.val, i64 %15
  %17 = load ptr, ptr %16, align 8, !tbaa !32
  %18 = getelementptr inbounds nuw i8, ptr %17, i64 16
  %19 = load i32, ptr %18, align 8, !tbaa !33
  %20 = sext i32 %19 to i64
  %21 = getelementptr inbounds float, ptr %6, i64 %20
  %22 = load float, ptr %21, align 4, !tbaa !35
  %23 = fcmp ult float %22, %2
  %24 = trunc nuw nsw i64 %indvars.iv to i32
  %25 = shl nuw i32 1, %24
  %26 = select i1 %23, i32 0, i32 %25
  %.1 = or i32 %26, %.01114
  %indvars.iv.next = add nuw nsw i64 %indvars.iv, 1
  %exitcond.not = icmp eq i64 %indvars.iv.next, %wide.trip.count
  br i1 %exitcond.not, label %.critedge, label %12, !llvm.loop !100

.critedge:                                        ; preds = %12, %4
  %.011.lcssa = phi i32 [ 0, %4 ], [ %.1, %12 ]
  ret i32 %.011.lcssa
}